target datalayout = "e-m:e-p270:32:32-p271:32:32-p272:64:64-i64:64-i128:128-f80:128-n8:16:32:64-S128"
target triple = "x86_64-pc-linux-gnu"

%struct.ASN1_ITEM_st = type { i8, i64, ptr, i64, ptr, i64, ptr }
%struct.error_enum = type { ptr, i32 }

@.str.19 = private unnamed_addr constant [27 x i8] c"../openssl/test/d2i_test.c\00", align 1
@.str.20 = private unnamed_addr constant [28 x i8] c"Error parsing test options\0A\00", align 1
@.str.21 = private unnamed_addr constant [38 x i8] c"test_type_name = test_get_argument(0)\00", align 1
@.str.22 = private unnamed_addr constant [45 x i8] c"expected_error_string = test_get_argument(1)\00", align 1
@.str.23 = private unnamed_addr constant [33 x i8] c"test_file = test_get_argument(2)\00", align 1
@test_file = internal global ptr null, align 8
@item_type = internal global ptr null, align 8
@.str.24 = private unnamed_addr constant [16 x i8] c"Unknown type %s\00", align 1
@.str.25 = private unnamed_addr constant [17 x i8] c"Supported types:\00", align 1
@.str.26 = private unnamed_addr constant [4 x i8] c"\09%s\00", align 1
@expected_error = internal global i32 0, align 4
@.str.27 = private unnamed_addr constant [27 x i8] c"Unknown expected error %s\0A\00", align 1
@.str.28 = private unnamed_addr constant [14 x i8] c"test_bad_asn1\00", align 1

; Function Attrs: nounwind uwtable
define dso_local i32 @setup_tests() #0 {
  %1 = alloca i32, align 4
  %2 = alloca ptr, align 8
  %3 = alloca ptr, align 8
  %4 = alloca i64, align 8
  %5 = alloca i32, align 4
  %6 = alloca ptr, align 8
  call void @llvm.lifetime.start.p0(i64 8, ptr %2) #5
  call void @llvm.lifetime.start.p0(i64 8, ptr %3) #5
  call void @llvm.lifetime.start.p0(i64 8, ptr %4) #5
  %7 = call i32 @test_skip_common_options()
  %8 = icmp ne i32 %7, 0
  br i1 %8, label %10, label %9

9:                                                ; preds = %0
  call void (ptr, i32, ptr, ...) @test_error(ptr noundef @.str.19, i32 noundef 131, ptr noundef @.str.20)
  store i32 0, ptr %1, align 4
  store i32 1, ptr %5, align 4
  br label %74

10:                                               ; preds = %0
  %11 = call ptr @test_get_argument(i64 noundef 0)
  store ptr %11, ptr %2, align 8, !tbaa !4
  %12 = call i32 @test_ptr(ptr noundef @.str.19, i32 noundef 135, ptr noundef @.str.21, ptr noundef %11)
  %13 = icmp ne i32 %12, 0
  br i1 %13, label %14, label %22

14:                                               ; preds = %10
  %15 = call ptr @test_get_argument(i64 noundef 1)
  store ptr %15, ptr %3, align 8, !tbaa !4
  %16 = call i32 @test_ptr(ptr noundef @.str.19, i32 noundef 136, ptr noundef @.str.22, ptr noundef %15)
  %17 = icmp ne i32 %16, 0
  br i1 %17, label %18, label %22

18:                                               ; preds = %14
  %19 = call ptr @test_get_argument(i64 noundef 2)
  store ptr %19, ptr @test_file, align 8, !tbaa !4
  %20 = call i32 @test_ptr(ptr noundef @.str.19, i32 noundef 137, ptr noundef @.str.23, ptr noundef %19)
  %21 = icmp ne i32 %20, 0
  br i1 %21, label %23, label %22

22:                                               ; preds = %18, %14, %10
  store i32 0, ptr %1, align 4
  store i32 1, ptr %5, align 4
  br label %74

23:                                               ; preds = %18
  %24 = load ptr, ptr %2, align 8, !tbaa !4
  %25 = call ptr @ASN1_ITEM_lookup(ptr noundef %24)
  store ptr %25, ptr @item_type, align 8, !tbaa !9
  %26 = load ptr, ptr @item_type, align 8, !tbaa !9
  %27 = icmp eq ptr %26, null
  br i1 %27, label %28, label %47

28:                                               ; preds = %23
  %29 = load ptr, ptr %2, align 8, !tbaa !4
  call void (ptr, i32, ptr, ...) @test_error(ptr noundef @.str.19, i32 noundef 143, ptr noundef @.str.24, ptr noundef %29)
  call void (ptr, ...) @test_note(ptr noundef @.str.25)
  store i64 0, ptr %4, align 8, !tbaa !11
  br label %30

30:                                               ; preds = %43, %28
  call void @llvm.lifetime.start.p0(i64 8, ptr %6) #5
  %31 = load i64, ptr %4, align 8, !tbaa !11
  %32 = call ptr @ASN1_ITEM_get(i64 noundef %31)
  store ptr %32, ptr %6, align 8, !tbaa !9
  %33 = load ptr, ptr %6, align 8, !tbaa !9
  %34 = icmp eq ptr %33, null
  br i1 %34, label %35, label %36

35:                                               ; preds = %30
  store i32 2, ptr %5, align 4
  br label %40

36:                                               ; preds = %30
  %37 = load ptr, ptr %6, align 8, !tbaa !9
  %38 = getelementptr inbounds nuw %struct.ASN1_ITEM_st, ptr %37, i32 0, i32 6
  %39 = load ptr, ptr %38, align 8, !tbaa !13
  call void (ptr, ...) @test_note(ptr noundef @.str.26, ptr noundef %39)
  store i32 0, ptr %5, align 4
  br label %40

40:                                               ; preds = %36, %35
  call void @llvm.lifetime.end.p0(i64 8, ptr %6) #5
  %41 = load i32, ptr %5, align 4
  switch i32 %41, label %76 [
    i32 0, label %42
    i32 2, label %46
  ]

42:                                               ; preds = %40
  br label %43

43:                                               ; preds = %42
  %44 = load i64, ptr %4, align 8, !tbaa !11
  %45 = add i64 %44, 1
  store i64 %45, ptr %4, align 8, !tbaa !11
  br label %30

46:                                               ; preds = %40
  store i32 0, ptr %1, align 4
  store i32 1, ptr %5, align 4
  br label %74

47:                                               ; preds = %23
  store i64 0, ptr %4, align 8, !tbaa !11
  br label %48

48:                                               ; preds = %65, %47
  %49 = load i64, ptr %4, align 8, !tbaa !11
  %50 = icmp ult i64 %49, 5
  br i1 %50, label %51, label %68

51:                                               ; preds = %48
  %52 = load i64, ptr %4, align 8, !tbaa !11
  %53 = getelementptr inbounds nuw [5 x %struct.error_enum], ptr @setup_tests.expected_errors, i64 0, i64 %52
  %54 = getelementptr inbounds nuw %struct.error_enum, ptr %53, i32 0, i32 0
  %55 = load ptr, ptr %54, align 16, !tbaa !16
  %56 = load ptr, ptr %3, align 8, !tbaa !4
  %57 = call i32 @strcmp(ptr noundef %55, ptr noundef %56) #6
  %58 = icmp eq i32 %57, 0
  br i1 %58, label %59, label %64

59:                                               ; preds = %51
  %60 = load i64, ptr %4, align 8, !tbaa !11
  %61 = getelementptr inbounds nuw [5 x %struct.error_enum], ptr @setup_tests.expected_errors, i64 0, i64 %60
  %62 = getelementptr inbounds nuw %struct.error_enum, ptr %61, i32 0, i32 1
  %63 = load i32, ptr %62, align 8, !tbaa !19
  store i32 %63, ptr @expected_error, align 4, !tbaa !20
  br label %68

64:                                               ; preds = %51
  br label %65

65:                                               ; preds = %64
  %66 = load i64, ptr %4, align 8, !tbaa !11
  %67 = add i64 %66, 1
  store i64 %67, ptr %4, align 8, !tbaa !11
  br label %48, !llvm.loop !21

68:                                               ; preds = %59, %48
  %69 = load i32, ptr @expected_error, align 4, !tbaa !20
  %70 = icmp eq i32 %69, 0
  br i1 %70, label %71, label %73

71:                                               ; preds = %68
  %72 = load ptr, ptr %3, align 8, !tbaa !4
  call void (ptr, i32, ptr, ...) @test_error(ptr noundef @.str.19, i32 noundef 163, ptr noundef @.str.27, ptr noundef %72)
  store i32 0, ptr %1, align 4
  store i32 1, ptr %5, align 4
  br label %74

73:                                               ; preds = %68
  call void @add_test(ptr noundef @.str.28, ptr noundef @test_bad_asn1)
  store i32 1, ptr %1, align 4
  store i32 1, ptr %5, align 4
  br label %74

74:                                               ; preds = %73, %71, %46, %22, %9
  call void @llvm.lifetime.end.p0(i64 8, ptr %4) #5
  call void @llvm.lifetime.end.p0(i64 8, ptr %3) #5
  call void @llvm.lifetime.end.p0(i64 8, ptr %2) #5
  %75 = load i32, ptr %1, align 4
  ret i32 %75

76:                                               ; preds = %40
  unreachable
}