; Function Attrs: nounwind uwtable
define dso_local range(i32 0, 2) i32 @setup_tests() local_unnamed_addr #1 {
  %1 = tail call i32 @test_skip_common_options() #6
  %.not = icmp eq i32 %1, 0
  br i1 %.not, label %2, label %3

2:                                                ; preds = %0
  tail call void (ptr, i32, ptr, ...) @test_error(ptr noundef nonnull @.str.19, i32 noundef 131, ptr noundef nonnull @.str.20) #6
  br label %.loopexit

3:                                                ; preds = %0
  %4 = tail call ptr @test_get_argument(i64 noundef 0) #6
  %5 = tail call i32 @test_ptr(ptr noundef nonnull @.str.19, i32 noundef 135, ptr noundef nonnull @.str.21, ptr noundef %4) #6
  %.not16 = icmp eq i32 %5, 0
  br i1 %.not16, label %.loopexit, label %6

6:                                                ; preds = %3
  %7 = tail call ptr @test_get_argument(i64 noundef 1) #6
  %8 = tail call i32 @test_ptr(ptr noundef nonnull @.str.19, i32 noundef 136, ptr noundef nonnull @.str.22, ptr noundef %7) #6
  %.not17 = icmp eq i32 %8, 0
  br i1 %.not17, label %.loopexit, label %9

9:                                                ; preds = %6
  %10 = tail call ptr @test_get_argument(i64 noundef 2) #6
  store ptr %10, ptr @test_file, align 8, !tbaa !4
  %11 = tail call i32 @test_ptr(ptr noundef nonnull @.str.19, i32 noundef 137, ptr noundef nonnull @.str.23, ptr noundef %10) #6
  %.not18 = icmp eq i32 %11, 0
  br i1 %.not18, label %.loopexit, label %12

12:                                               ; preds = %9
  %13 = tail call ptr @ASN1_ITEM_lookup(ptr noundef %4) #6
  store ptr %13, ptr @item_type, align 8, !tbaa !9
  %14 = icmp eq ptr %13, null
  br i1 %14, label %15, label %.preheader

15:                                               ; preds = %12
  tail call void (ptr, i32, ptr, ...) @test_error(ptr noundef nonnull @.str.19, i32 noundef 143, ptr noundef nonnull @.str.24, ptr noundef %4) #6
  tail call void (ptr, ...) @test_note(ptr noundef nonnull @.str.25) #6
  %16 = tail call ptr @ASN1_ITEM_get(i64 noundef 0) #6
  %17 = icmp eq ptr %16, null
  br i1 %17, label %.loopexit, label %.lr.ph

.lr.ph:                                           ; preds = %15, %.lr.ph
  %18 = phi ptr [ %22, %.lr.ph ], [ %16, %15 ]
  %.01422 = phi i64 [ %21, %.lr.ph ], [ 0, %15 ]
  %19 = getelementptr inbounds nuw i8, ptr %18, i64 48
  %20 = load ptr, ptr %19, align 8, !tbaa !11
  tail call void (ptr, ...) @test_note(ptr noundef nonnull @.str.26, ptr noundef %20) #6
  %21 = add i64 %.01422, 1
  %22 = tail call ptr @ASN1_ITEM_get(i64 noundef %21) #6
  %23 = icmp eq ptr %22, null
  br i1 %23, label %.loopexit, label %.lr.ph

24:                                               ; preds = %.preheader
  %25 = add nuw nsw i64 %.121, 1
  %exitcond.not = icmp eq i64 %25, 5
  br i1 %exitcond.not, label %thread-pre-split, label %.preheader, !llvm.loop !15

.preheader:                                       ; preds = %12, %24
  %.121 = phi i64 [ %25, %24 ], [ 0, %12 ]
  %26 = getelementptr inbounds nuw [5 x %struct.error_enum], ptr @setup_tests.expected_errors, i64 0, i64 %.121
  %27 = load ptr, ptr %26, align 16, !tbaa !17
  %28 = tail call i32 @strcmp(ptr noundef nonnull dereferenceable(1) %27, ptr noundef nonnull dereferenceable(1) %7) #7
  %29 = icmp eq i32 %28, 0
  br i1 %29, label %30, label %24

30:                                               ; preds = %.preheader
  %31 = getelementptr inbounds nuw i8, ptr %26, i64 8
  %32 = load i32, ptr %31, align 8, !tbaa !20
  store i32 %32, ptr @expected_error, align 4, !tbaa !21
  br label %33

thread-pre-split:                                 ; preds = %24
  %.pr = load i32, ptr @expected_error, align 4, !tbaa !21
  br label %33

33:                                               ; preds = %thread-pre-split, %30
  %34 = phi i32 [ %.pr, %thread-pre-split ], [ %32, %30 ]
  %35 = icmp eq i32 %34, 0
  br i1 %35, label %36, label %37

36:                                               ; preds = %33
  tail call void (ptr, i32, ptr, ...) @test_error(ptr noundef nonnull @.str.19, i32 noundef 163, ptr noundef nonnull @.str.27, ptr noundef nonnull %7) #6
  br label %.loopexit

37:                                               ; preds = %33
  tail call void @add_test(ptr noundef nonnull @.str.28, ptr noundef nonnull @test_bad_asn1) #6
  br label %.loopexit

.loopexit:                                        ; preds = %.lr.ph, %15, %3, %6, %9, %37, %36, %2
  %.0 = phi i32 [ 0, %36 ], [ 1, %37 ], [ 0, %2 ], [ 0, %9 ], [ 0, %6 ], [ 0, %3 ], [ 0, %15 ], [ 0, %.lr.ph ]
  ret i32 %.0
}